; Function Attrs: nounwind uwtable
define noalias nonnull ptr @l_Lean_MonadCacheT_instMonadFinally(ptr noundef readnone captures(none) %0, ptr noundef readnone captures(none) %1, ptr noundef readnone captures(none) %2, ptr noundef readnone captures(none) %3, ptr noundef readnone captures(none) %4, ptr noundef readnone captures(none) %5, ptr noundef readnone captures(none) %6) local_unnamed_addr #0 {
  tail call void @lean_inc_heartbeat() #4
  %8 = tail call noalias ptr @mi_malloc_small(i64 noundef 24) #4
  %9 = icmp eq ptr %8, null
  br i1 %9, label %10, label %lean_alloc_closure.exit

10:                                               ; preds = %7
  tail call void @lean_internal_panic_out_of_memory() #5
  unreachable

lean_alloc_closure.exit:                          ; preds = %7
  %11 = getelementptr inbounds nuw i8, ptr %8, i64 4
  store i32 1, ptr %8, align 4, !tbaa !8
  store i32 -184549352, ptr %11, align 4
  %12 = getelementptr inbounds nuw i8, ptr %8, i64 8
  store ptr @l_Lean_MonadCacheT_instMonadFinally___rarg, ptr %12, align 8, !tbaa !4
  %13 = getelementptr inbounds nuw i8, ptr %8, i64 16
  store i16 1, ptr %13, align 8, !tbaa !12
  %14 = getelementptr inbounds nuw i8, ptr %8, i64 18
  store i16 0, ptr %14, align 2, !tbaa !12
  ret ptr %8
}